target datalayout = "e-m:e-p270:32:32-p271:32:32-p272:64:64-i64:64-i128:128-f80:128-n8:16:32:64-S128"
target triple = "x86_64-pc-linux-gnu"

%struct.pg_enc2name = type { ptr, i32 }

@ClientEncoding = internal global ptr @pg_enc2name_tbl, align 8
@ToServerConvProc = internal global ptr null, align 8
@ToClientConvProc = internal global ptr null, align 8
@.str.1 = private unnamed_addr constant [10 x i8] c"mbutils.c\00", align 1
@.str.4 = private unnamed_addr constant [14 x i8] c"out of memory\00", align 1
@.str.5 = private unnamed_addr constant [56 x i8] c"String of %d bytes is too long for encoding conversion.\00", align 1
@CurrentMemoryContext = external global ptr, align 8
@DatabaseEncoding = internal global ptr @pg_enc2name_tbl, align 8
@__func__.perform_default_encoding_conversion = private unnamed_addr constant [36 x i8] c"perform_default_encoding_conversion\00", align 1

; Function Attrs: inlinehint nounwind uwtable
define internal i64 @PointerGetDatum(ptr noundef %0) #0 {
  %2 = alloca ptr, align 8
  store ptr %0, ptr %2, align 8
  %3 = load ptr, ptr %2, align 8
  %4 = ptrtoint ptr %3 to i64
  ret i64 %4
}

; Function Attrs: inlinehint nounwind uwtable
define internal i64 @BoolGetDatum(i1 noundef zeroext %0) #0 {
  %2 = alloca i8, align 1
  %3 = zext i1 %0 to i8
  store i8 %3, ptr %2, align 1
  %4 = load i8, ptr %2, align 1, !range !4, !noundef !5
  %5 = trunc i8 %4 to i1
  %6 = select i1 %5, i32 1, i32 0
  %7 = sext i32 %6 to i64
  ret i64 %7
}

; Function Attrs: inlinehint nounwind uwtable
define internal i64 @CStringGetDatum(ptr noundef %0) #0 {
  %2 = alloca ptr, align 8
  store ptr %0, ptr %2, align 8
  %3 = load ptr, ptr %2, align 8
  %4 = call i64 @PointerGetDatum(ptr noundef %3)
  ret i64 %4
}

; Function Attrs: inlinehint nounwind uwtable
define internal i64 @Int32GetDatum(i32 noundef %0) #0 {
  %2 = alloca i32, align 4
  store i32 %0, ptr %2, align 4
  %3 = load i32, ptr %2, align 4
  %4 = sext i32 %3 to i64
  ret i64 %4
}

; Function Attrs: nounwind uwtable
define internal ptr @perform_default_encoding_conversion(ptr noundef %0, i32 noundef %1, i1 noundef zeroext %2) #1 {
  %4 = alloca ptr, align 8
  %5 = alloca ptr, align 8
  %6 = alloca i32, align 4
  %7 = alloca i8, align 1
  %8 = alloca ptr, align 8
  %9 = alloca i32, align 4
  %10 = alloca i32, align 4
  %11 = alloca ptr, align 8
  %12 = alloca i32, align 4
  %13 = alloca i32, align 4
  %14 = alloca i64, align 8
  store ptr %0, ptr %5, align 8
  store i32 %1, ptr %6, align 4
  %15 = zext i1 %2 to i8
  store i8 %15, ptr %7, align 1
  call void @llvm.lifetime.start.p0(i64 8, ptr %8) #9
  call void @llvm.lifetime.start.p0(i64 4, ptr %9) #9
  call void @llvm.lifetime.start.p0(i64 4, ptr %10) #9
  call void @llvm.lifetime.start.p0(i64 8, ptr %11) #9
  %16 = load i8, ptr %7, align 1, !range !4, !noundef !5
  %17 = trunc i8 %16 to i1
  br i1 %17, label %18, label %26

18:                                               ; preds = %3
  %19 = load ptr, ptr @ClientEncoding, align 8
  %20 = getelementptr inbounds nuw %struct.pg_enc2name, ptr %19, i32 0, i32 1
  %21 = load i32, ptr %20, align 8
  store i32 %21, ptr %9, align 4
  %22 = load ptr, ptr @DatabaseEncoding, align 8
  %23 = getelementptr inbounds nuw %struct.pg_enc2name, ptr %22, i32 0, i32 1
  %24 = load i32, ptr %23, align 8
  store i32 %24, ptr %10, align 4
  %25 = load ptr, ptr @ToServerConvProc, align 8
  store ptr %25, ptr %11, align 8
  br label %34

26:                                               ; preds = %3
  %27 = load ptr, ptr @DatabaseEncoding, align 8
  %28 = getelementptr inbounds nuw %struct.pg_enc2name, ptr %27, i32 0, i32 1
  %29 = load i32, ptr %28, align 8
  store i32 %29, ptr %9, align 4
  %30 = load ptr, ptr @ClientEncoding, align 8
  %31 = getelementptr inbounds nuw %struct.pg_enc2name, ptr %30, i32 0, i32 1
  %32 = load i32, ptr %31, align 8
  store i32 %32, ptr %10, align 4
  %33 = load ptr, ptr @ToClientConvProc, align 8
  store ptr %33, ptr %11, align 8
  br label %34

34:                                               ; preds = %26, %18
  %35 = load ptr, ptr %11, align 8
  %36 = icmp eq ptr %35, null
  br i1 %36, label %37, label %42

37:                                               ; preds = %34
  br label %38

38:                                               ; preds = %37
  br label %39

39:                                               ; preds = %38
  br label %40

40:                                               ; preds = %39
  store i32 1, ptr %12, align 4
  %41 = load ptr, ptr %5, align 8
  store ptr %41, ptr %4, align 8
  store i32 1, ptr %13, align 4
  br label %108

42:                                               ; preds = %34
  %43 = load i32, ptr %6, align 4
  %44 = sext i32 %43 to i64
  %45 = icmp uge i64 %44, 2305843009213693951
  br i1 %45, label %46, label %60

46:                                               ; preds = %42
  br label %47

47:                                               ; preds = %46
  br i1 true, label %48, label %50

48:                                               ; preds = %47
  %49 = call zeroext i1 @errstart_cold(i32 noundef 21, ptr noundef null) #10
  br i1 %49, label %52, label %57

50:                                               ; preds = %47
  %51 = call zeroext i1 @errstart(i32 noundef 21, ptr noundef null)
  br i1 %51, label %52, label %57

52:                                               ; preds = %50, %48
  %53 = call i32 @errcode(i32 noundef 261)
  %54 = call i32 (ptr, ...) @errmsg(ptr noundef @.str.4)
  %55 = load i32, ptr %6, align 4
  %56 = call i32 (ptr, ...) @errdetail(ptr noundef @.str.5, i32 noundef %55)
  call void @errfinish(ptr noundef @.str.1, i32 noundef 816, ptr noundef @__func__.perform_default_encoding_conversion)
  br label %57

57:                                               ; preds = %52, %50, %48
  unreachable

58:                                               ; No predecessors!
  br label %59

59:                                               ; preds = %58
  br label %60

60:                                               ; preds = %59, %42
  %61 = load ptr, ptr @CurrentMemoryContext, align 8
  %62 = load i32, ptr %6, align 4
  %63 = sext i32 %62 to i64
  %64 = mul i64 %63, 4
  %65 = add i64 %64, 1
  %66 = call ptr @MemoryContextAllocHuge(ptr noundef %61, i64 noundef %65)
  store ptr %66, ptr %8, align 8
  %67 = load ptr, ptr %11, align 8
  %68 = load i32, ptr %9, align 4
  %69 = call i64 @Int32GetDatum(i32 noundef %68)
  %70 = load i32, ptr %10, align 4
  %71 = call i64 @Int32GetDatum(i32 noundef %70)
  %72 = load ptr, ptr %5, align 8
  %73 = call i64 @CStringGetDatum(ptr noundef %72)
  %74 = load ptr, ptr %8, align 8
  %75 = call i64 @CStringGetDatum(ptr noundef %74)
  %76 = load i32, ptr %6, align 4
  %77 = call i64 @Int32GetDatum(i32 noundef %76)
  %78 = call i64 @BoolGetDatum(i1 noundef zeroext false)
  %79 = call i64 @FunctionCall6Coll(ptr noundef %67, i32 noundef 0, i64 noundef %69, i64 noundef %71, i64 noundef %73, i64 noundef %75, i64 noundef %77, i64 noundef %78)
  %80 = load i32, ptr %6, align 4
  %81 = icmp sgt i32 %80, 1000000
  br i1 %81, label %82, label %106

82:                                               ; preds = %60
  call void @llvm.lifetime.start.p0(i64 8, ptr %14) #9
  %83 = load ptr, ptr %8, align 8
  %84 = call i64 @strlen(ptr noundef %83) #11
  store i64 %84, ptr %14, align 8
  %85 = load i64, ptr %14, align 8
  %86 = icmp uge i64 %85, 1073741823
  br i1 %86, label %87, label %101

87:                                               ; preds = %82
  br label %88

88:                                               ; preds = %87
  br i1 true, label %89, label %91

89:                                               ; preds = %88
  %90 = call zeroext i1 @errstart_cold(i32 noundef 21, ptr noundef null) #10
  br i1 %90, label %93, label %98

91:                                               ; preds = %88
  %92 = call zeroext i1 @errstart(i32 noundef 21, ptr noundef null)
  br i1 %92, label %93, label %98

93:                                               ; preds = %91, %89
  %94 = call i32 @errcode(i32 noundef 261)
  %95 = call i32 (ptr, ...) @errmsg(ptr noundef @.str.4)
  %96 = load i32, ptr %6, align 4
  %97 = call i32 (ptr, ...) @errdetail(ptr noundef @.str.5, i32 noundef %96)
  call void @errfinish(ptr noundef @.str.1, i32 noundef 843, ptr noundef @__func__.perform_default_encoding_conversion)
  br label %98

98:                                               ; preds = %93, %91, %89
  unreachable

99:                                               ; No predecessors!
  br label %100

100:                                              ; preds = %99
  br label %101

101:                                              ; preds = %100, %82
  %102 = load ptr, ptr %8, align 8
  %103 = load i64, ptr %14, align 8
  %104 = add i64 %103, 1
  %105 = call ptr @repalloc(ptr noundef %102, i64 noundef %104)
  store ptr %105, ptr %8, align 8
  call void @llvm.lifetime.end.p0(i64 8, ptr %14) #9
  br label %106

106:                                              ; preds = %101, %60
  %107 = load ptr, ptr %8, align 8
  store ptr %107, ptr %4, align 8
  store i32 1, ptr %13, align 4
  br label %108

108:                                              ; preds = %106, %40
  call void @llvm.lifetime.end.p0(i64 8, ptr %11) #9
  call void @llvm.lifetime.end.p0(i64 4, ptr %10) #9
  call void @llvm.lifetime.end.p0(i64 4, ptr %9) #9
  call void @llvm.lifetime.end.p0(i64 8, ptr %8) #9
  %109 = load ptr, ptr %4, align 8
  ret ptr %109
}