; Function Attrs: nounwind uwtable
define internal fastcc ptr @perform_default_encoding_conversion(ptr noundef %0, i32 noundef range(i32 1, -2147483648) %1, i1 noundef zeroext %2) unnamed_addr #0 {
  %ToServerConvProc.val = load ptr, ptr @ToServerConvProc, align 8
  %ToClientConvProc.val = load ptr, ptr @ToClientConvProc, align 8
  %.020 = select i1 %2, ptr %ToServerConvProc.val, ptr %ToClientConvProc.val
  %4 = icmp eq ptr %.020, null
  br i1 %4, label %28, label %5

5:                                                ; preds = %3
  %ClientEncoding.val27 = load ptr, ptr @ClientEncoding, align 8
  %DatabaseEncoding.val28 = load ptr, ptr @DatabaseEncoding, align 8
  %.pn = select i1 %2, ptr %ClientEncoding.val27, ptr %DatabaseEncoding.val28
  %.022.in = getelementptr inbounds nuw i8, ptr %.pn, i64 8
  %.022 = load i32, ptr %.022.in, align 8
  %.pn26 = select i1 %2, ptr %DatabaseEncoding.val28, ptr %ClientEncoding.val27
  %.021.in = getelementptr inbounds nuw i8, ptr %.pn26, i64 8
  %.021 = load i32, ptr %.021.in, align 8
  %6 = zext nneg i32 %1 to i64
  %7 = load ptr, ptr @CurrentMemoryContext, align 8
  %8 = shl nuw nsw i64 %6, 2
  %9 = or disjoint i64 %8, 1
  %10 = tail call ptr @MemoryContextAllocHuge(ptr noundef %7, i64 noundef %9) #13
  %11 = sext i32 %.022 to i64
  %12 = sext i32 %.021 to i64
  %13 = ptrtoint ptr %0 to i64
  %14 = ptrtoint ptr %10 to i64
  %15 = tail call i64 @FunctionCall6Coll(ptr noundef nonnull %.020, i32 noundef 0, i64 noundef %11, i64 noundef %12, i64 noundef %13, i64 noundef %14, i64 noundef %6, i64 noundef 0) #13
  %16 = icmp samesign ugt i32 %1, 1000000
  br i1 %16, label %17, label %28

17:                                               ; preds = %5
  %18 = tail call i64 @strlen(ptr noundef nonnull dereferenceable(1) %10) #16
  %19 = icmp ugt i64 %18, 1073741822
  br i1 %19, label %20, label %25

20:                                               ; preds = %17
  %21 = tail call zeroext i1 @errstart_cold(i32 noundef 21, ptr noundef null) #14
  tail call void @llvm.assume(i1 %21)
  %22 = tail call i32 @errcode(i32 noundef 261) #13
  %23 = tail call i32 (ptr, ...) @errmsg(ptr noundef nonnull @.str.4) #13
  %24 = tail call i32 (ptr, ...) @errdetail(ptr noundef nonnull @.str.5, i32 noundef %1) #13
  tail call void @errfinish(ptr noundef nonnull @.str.1, i32 noundef 843, ptr noundef nonnull @__func__.perform_default_encoding_conversion) #13
  unreachable

25:                                               ; preds = %17
  %26 = add nuw nsw i64 %18, 1
  %27 = tail call ptr @repalloc(ptr noundef nonnull %10, i64 noundef %26) #13
  br label %28

28:                                               ; preds = %5, %25, %3
  %.0 = phi ptr [ %0, %3 ], [ %27, %25 ], [ %10, %5 ]
  ret ptr %.0
}